; Function Attrs: mustprogress uwtable
define void @_ZN2cv4gapi19goodFeaturesToTrackERKNS_4GMatEiddRKNS_3MatEibd(ptr dead_on_unwind noalias writable sret(%"class.cv::GArray") align 8 %0, ptr nocapture noundef nonnull readonly align 8 dereferenceable(16) %1, i32 noundef %2, double noundef %3, double noundef %4, ptr noundef nonnull align 8 dereferenceable(96) %5, i32 noundef %6, i1 noundef zeroext %7, double noundef %8) local_unnamed_addr #3 personality ptr @__gxx_personality_v0 {
  %10 = alloca %"class.cv::GMat", align 8
  %11 = alloca %"class.cv::Mat", align 8
  %12 = load ptr, ptr %1, align 8
  store ptr %12, ptr %10, align 8
  %13 = getelementptr inbounds i8, ptr %10, i64 8
  %14 = getelementptr inbounds i8, ptr %1, i64 8
  %15 = load ptr, ptr %14, align 8
  store ptr %15, ptr %13, align 8
  %.not.i.i.i.i = icmp eq ptr %15, null
  br i1 %.not.i.i.i.i, label %_ZN2cv4GMatC2ERKS0_.exit, label %16

16:                                               ; preds = %9
  %17 = getelementptr inbounds i8, ptr %15, i64 8
  %18 = load i8, ptr @__libc_single_threaded, align 1
  %.not.i.i.i.i.i = icmp eq i8 %18, 0
  br i1 %.not.i.i.i.i.i, label %22, label %19

19:                                               ; preds = %16
  %20 = load i32, ptr %17, align 4
  %21 = add nsw i32 %20, 1
  store i32 %21, ptr %17, align 4
  br label %_ZN2cv4GMatC2ERKS0_.exit

22:                                               ; preds = %16
  %23 = atomicrmw volatile add ptr %17, i32 1 acq_rel, align 4
  br label %_ZN2cv4GMatC2ERKS0_.exit

_ZN2cv4GMatC2ERKS0_.exit:                         ; preds = %9, %19, %22
  invoke void @_ZN2cv3MatC1ERKS0_(ptr noundef nonnull align 8 dereferenceable(96) %11, ptr noundef nonnull align 8 dereferenceable(96) %5)
          to label %24 unwind label %61

24:                                               ; preds = %_ZN2cv4GMatC2ERKS0_.exit
  invoke void @_ZN2cv11GKernelTypeINS_4gapi7imgproc13GGoodFeaturesESt8functionIFNS_6GArrayINS_6Point_IfEEEENS_4GMatEiddNS_3MatEibdEEE2onES9_iddSA_ibd(ptr dead_on_unwind writable sret(%"class.cv::GArray") align 8 %0, ptr noundef nonnull %10, i32 noundef %2, double noundef %3, double noundef %4, ptr noundef nonnull %11, i32 noundef %6, i1 noundef zeroext %7, double noundef %8)
          to label %25 unwind label %63

25:                                               ; preds = %24
  call void @_ZN2cv3MatD1Ev(ptr noundef nonnull align 8 dereferenceable(96) %11) #18
  %26 = load ptr, ptr %13, align 8
  %.not.i.i.i.i11 = icmp eq ptr %26, null
  br i1 %.not.i.i.i.i11, label %_ZN2cv4GMatD2Ev.exit, label %27

27:                                               ; preds = %25
  %28 = getelementptr inbounds i8, ptr %26, i64 8
  %29 = load atomic i64, ptr %28 acquire, align 8
  %30 = icmp eq i64 %29, 4294967297
  %31 = trunc i64 %29 to i32
  br i1 %30, label %32, label %37

32:                                               ; preds = %27
  store i32 0, ptr %28, align 8
  %33 = getelementptr inbounds i8, ptr %26, i64 12
  store i32 0, ptr %33, align 4
  %34 = load ptr, ptr %26, align 8
  %35 = getelementptr inbounds i8, ptr %34, i64 16
  %36 = load ptr, ptr %35, align 8
  call void %36(ptr noundef nonnull align 8 dereferenceable(16) %26) #18
  br label %_ZNSt16_Sp_counted_baseILN9__gnu_cxx12_Lock_policyE2EE24_M_release_last_use_coldEv.exit.sink.split.i.i.i.i.i

37:                                               ; preds = %27
  %38 = load i8, ptr @__libc_single_threaded, align 1
  %.not.i.i.i.i.i12 = icmp eq i8 %38, 0
  br i1 %.not.i.i.i.i.i12, label %41, label %39

39:                                               ; preds = %37
  %40 = add nsw i32 %31, -1
  store i32 %40, ptr %28, align 4
  br label %43

41:                                               ; preds = %37
  %42 = atomicrmw volatile add ptr %28, i32 -1 acq_rel, align 4
  br label %43

43:                                               ; preds = %41, %39
  %.0.i.i.i.i.i = phi i32 [ %31, %39 ], [ %42, %41 ]
  %44 = icmp eq i32 %.0.i.i.i.i.i, 1
  br i1 %44, label %45, label %_ZN2cv4GMatD2Ev.exit

45:                                               ; preds = %43
  %46 = load ptr, ptr %26, align 8
  %47 = getelementptr inbounds i8, ptr %46, i64 16
  %48 = load ptr, ptr %47, align 8
  call void %48(ptr noundef nonnull align 8 dereferenceable(16) %26) #18
  %49 = getelementptr inbounds i8, ptr %26, i64 12
  %50 = load i8, ptr @__libc_single_threaded, align 1
  %.not.i.i.i.i.i.i.i = icmp eq i8 %50, 0
  br i1 %.not.i.i.i.i.i.i.i, label %54, label %51

51:                                               ; preds = %45
  %52 = load i32, ptr %49, align 4
  %53 = add nsw i32 %52, -1
  store i32 %53, ptr %49, align 4
  br label %56

54:                                               ; preds = %45
  %55 = atomicrmw volatile add ptr %49, i32 -1 acq_rel, align 4
  br label %56

56:                                               ; preds = %54, %51
  %.0.i.i.i.i.i.i.i = phi i32 [ %52, %51 ], [ %55, %54 ]
  %57 = icmp eq i32 %.0.i.i.i.i.i.i.i, 1
  br i1 %57, label %_ZNSt16_Sp_counted_baseILN9__gnu_cxx12_Lock_policyE2EE24_M_release_last_use_coldEv.exit.sink.split.i.i.i.i.i, label %_ZN2cv4GMatD2Ev.exit

_ZNSt16_Sp_counted_baseILN9__gnu_cxx12_Lock_policyE2EE24_M_release_last_use_coldEv.exit.sink.split.i.i.i.i.i: ; preds = %56, %32
  %58 = load ptr, ptr %26, align 8
  %59 = getelementptr inbounds i8, ptr %58, i64 24
  %60 = load ptr, ptr %59, align 8
  call void %60(ptr noundef nonnull align 8 dereferenceable(16) %26) #18
  br label %_ZN2cv4GMatD2Ev.exit

_ZN2cv4GMatD2Ev.exit:                             ; preds = %25, %43, %56, %_ZNSt16_Sp_counted_baseILN9__gnu_cxx12_Lock_policyE2EE24_M_release_last_use_coldEv.exit.sink.split.i.i.i.i.i
  ret void

61:                                               ; preds = %_ZN2cv4GMatC2ERKS0_.exit
  %62 = landingpad { ptr, i32 }
          cleanup
  br label %65

63:                                               ; preds = %24
  %64 = landingpad { ptr, i32 }
          cleanup
  call void @_ZN2cv3MatD1Ev(ptr noundef nonnull align 8 dereferenceable(96) %11) #18
  br label %65

65:                                               ; preds = %63, %61
  %.pn = phi { ptr, i32 } [ %64, %63 ], [ %62, %61 ]
  call void @_ZN2cv4GMatD2Ev(ptr noundef nonnull align 8 dereferenceable(16) %10) #18
  resume { ptr, i32 } %.pn
}